; Function Attrs: mustprogress nofree norecurse nosync nounwind memory(readwrite, inaccessiblemem: none) uwtable
define dso_local void @_ZN9DfgVertex11replaceWithEPS_(ptr nocapture noundef nonnull readonly align 8 dereferenceable(72) %0, ptr noundef %1) #16 align 2 {
  %3 = getelementptr inbounds i8, ptr %0, i64 24
  %4 = load ptr, ptr %3, align 8
  %.not2 = icmp eq ptr %4, null
  br i1 %.not2, label %._crit_edge, label %.lr.ph

.lr.ph:                                           ; preds = %2
  %5 = getelementptr inbounds i8, ptr %1, i64 24
  br label %6

6:                                                ; preds = %.lr.ph, %_ZN7DfgEdge12relinkSourceEP9DfgVertex.exit
  %7 = phi ptr [ %4, %.lr.ph ], [ %29, %_ZN7DfgEdge12relinkSourceEP9DfgVertex.exit ]
  %8 = getelementptr inbounds i8, ptr %7, i64 16
  %9 = load ptr, ptr %8, align 8
  %.not.i.i = icmp eq ptr %9, null
  br i1 %.not.i.i, label %_ZN7DfgEdge12unlinkSourceEv.exit.i, label %10

10:                                               ; preds = %6
  %11 = getelementptr inbounds i8, ptr %7, i64 8
  %12 = load ptr, ptr %11, align 8
  %.not3.i.i = icmp eq ptr %12, null
  %.pre.i.i = load ptr, ptr %7, align 8
  br i1 %.not3.i.i, label %14, label %13

13:                                               ; preds = %10
  store ptr %.pre.i.i, ptr %12, align 8
  br label %14

14:                                               ; preds = %13, %10
  %.not4.i.i = icmp eq ptr %.pre.i.i, null
  br i1 %.not4.i.i, label %18, label %15

15:                                               ; preds = %14
  %16 = load ptr, ptr %11, align 8
  %17 = getelementptr inbounds i8, ptr %.pre.i.i, i64 8
  store ptr %16, ptr %17, align 8
  br label %18

18:                                               ; preds = %15, %14
  %19 = load ptr, ptr %8, align 8
  %20 = getelementptr inbounds i8, ptr %19, i64 24
  %21 = load ptr, ptr %20, align 8
  %22 = icmp eq ptr %21, %7
  br i1 %22, label %23, label %25

23:                                               ; preds = %18
  %24 = load ptr, ptr %7, align 8
  store ptr %24, ptr %20, align 8
  br label %25

25:                                               ; preds = %23, %18
  tail call void @llvm.memset.p0.i64(ptr noundef nonnull align 8 dereferenceable(24) %7, i8 0, i64 16, i1 false)
  br label %_ZN7DfgEdge12unlinkSourceEv.exit.i

_ZN7DfgEdge12unlinkSourceEv.exit.i:               ; preds = %25, %6
  store ptr %1, ptr %8, align 8
  %26 = load ptr, ptr %5, align 8
  store ptr %26, ptr %7, align 8
  %.not.i = icmp eq ptr %26, null
  br i1 %.not.i, label %_ZN7DfgEdge12relinkSourceEP9DfgVertex.exit, label %27

27:                                               ; preds = %_ZN7DfgEdge12unlinkSourceEv.exit.i
  %28 = getelementptr inbounds i8, ptr %26, i64 8
  store ptr %7, ptr %28, align 8
  br label %_ZN7DfgEdge12relinkSourceEP9DfgVertex.exit

_ZN7DfgEdge12relinkSourceEP9DfgVertex.exit:       ; preds = %_ZN7DfgEdge12unlinkSourceEv.exit.i, %27
  store ptr %7, ptr %5, align 8
  %29 = load ptr, ptr %3, align 8
  %.not = icmp eq ptr %29, null
  br i1 %.not, label %._crit_edge, label %6, !llvm.loop !16

._crit_edge:                                      ; preds = %_ZN7DfgEdge12relinkSourceEP9DfgVertex.exit, %2
  ret void
}